; Function Attrs: mustprogress uwtable
define hidden void @_ZN12opencv_caffe15ArgMaxParameter9MergeFromERKS0_(ptr noundef nonnull align 8 dereferenceable(40) %0, ptr noundef nonnull readonly align 8 captures(none) dereferenceable(40) %1) local_unnamed_addr #3 align 2 personality ptr @__gxx_personality_v0 {
  %3 = getelementptr inbounds nuw i8, ptr %1, i64 16
  %4 = load i32, ptr %3, align 8, !tbaa !71
  %5 = and i32 %4, 7
  %.not = icmp eq i32 %5, 0
  br i1 %.not, label %28, label %6

6:                                                ; preds = %2
  %7 = and i32 %4, 1
  %.not10 = icmp eq i32 %7, 0
  br i1 %.not10, label %12, label %8

8:                                                ; preds = %6
  %9 = getelementptr inbounds nuw i8, ptr %1, i64 24
  %10 = load i8, ptr %9, align 8, !tbaa !668, !range !126, !noundef !127
  %11 = getelementptr inbounds nuw i8, ptr %0, i64 24
  store i8 %10, ptr %11, align 8, !tbaa !668
  br label %12

12:                                               ; preds = %8, %6
  %13 = and i32 %4, 2
  %.not11 = icmp eq i32 %13, 0
  br i1 %.not11, label %18, label %14

14:                                               ; preds = %12
  %15 = getelementptr inbounds nuw i8, ptr %1, i64 28
  %16 = load i32, ptr %15, align 4, !tbaa !651
  %17 = getelementptr inbounds nuw i8, ptr %0, i64 28
  store i32 %16, ptr %17, align 4, !tbaa !651
  br label %18

18:                                               ; preds = %14, %12
  %19 = and i32 %4, 4
  %.not12 = icmp eq i32 %19, 0
  br i1 %.not12, label %24, label %20

20:                                               ; preds = %18
  %21 = getelementptr inbounds nuw i8, ptr %1, i64 32
  %22 = load i32, ptr %21, align 8, !tbaa !508
  %23 = getelementptr inbounds nuw i8, ptr %0, i64 32
  store i32 %22, ptr %23, align 8, !tbaa !508
  br label %24

24:                                               ; preds = %20, %18
  %25 = getelementptr inbounds nuw i8, ptr %0, i64 16
  %26 = load i32, ptr %25, align 8, !tbaa !71
  %27 = or i32 %26, %4
  store i32 %27, ptr %25, align 8, !tbaa !71
  br label %28

28:                                               ; preds = %24, %2
  %29 = getelementptr inbounds nuw i8, ptr %1, i64 8
  %30 = load i64, ptr %29, align 8, !tbaa !8
  %31 = and i64 %30, 1
  %.not13 = icmp eq i64 %31, 0
  br i1 %.not13, label %_ZN6google8protobuf8internal16InternalMetadata9MergeFromINS0_15UnknownFieldSetEEEvRKS2_.exit, label %_ZNK6google8protobuf8internal16InternalMetadata14unknown_fieldsINS0_15UnknownFieldSetEEERKT_PFS7_vE.exit

_ZNK6google8protobuf8internal16InternalMetadata14unknown_fieldsINS0_15UnknownFieldSetEEERKT_PFS7_vE.exit: ; preds = %28
  %32 = getelementptr inbounds nuw i8, ptr %0, i64 8
  %33 = and i64 %30, -4
  %34 = inttoptr i64 %33 to ptr
  %35 = getelementptr inbounds nuw i8, ptr %34, i64 8
  tail call void @_ZN6google8protobuf8internal16InternalMetadata11DoMergeFromINS0_15UnknownFieldSetEEEvRKT_(ptr noundef nonnull align 8 dereferenceable(8) %32, ptr noundef nonnull align 8 dereferenceable(24) %35)
  br label %_ZN6google8protobuf8internal16InternalMetadata9MergeFromINS0_15UnknownFieldSetEEEvRKS2_.exit

_ZN6google8protobuf8internal16InternalMetadata9MergeFromINS0_15UnknownFieldSetEEEvRKS2_.exit: ; preds = %28, %_ZNK6google8protobuf8internal16InternalMetadata14unknown_fieldsINS0_15UnknownFieldSetEEERKT_PFS7_vE.exit
  ret void
}